; Function Attrs: mustprogress nounwind uwtable
define hidden void @_ZN12PhaseChaitin7new_lrgEPK4Nodej(ptr noundef nonnull align 8 dereferenceable(364) %0, ptr nocapture noundef readonly %1, i32 noundef %2) local_unnamed_addr #2 align 2 {
  %4 = getelementptr inbounds i8, ptr %1, i64 40
  %5 = load i32, ptr %4, align 8
  %6 = getelementptr inbounds i8, ptr %0, i64 256
  %7 = load i32, ptr %6, align 8
  %.not.i.i = icmp sgt i32 %7, %5
  br i1 %.not.i.i, label %_ZN12LiveRangeMap6extendEjj.exit, label %8

8:                                                ; preds = %3
  %9 = getelementptr inbounds i8, ptr %0, i64 260
  %10 = load i32, ptr %9, align 4
  %.not12.i.i = icmp sgt i32 %10, %5
  br i1 %.not12.i.i, label %21, label %11

11:                                               ; preds = %8
  %12 = add nsw i32 %5, 1
  %13 = icmp sgt i32 %5, -1
  %14 = xor i32 %5, -2147483648
  %15 = and i32 %14, %12
  %16 = icmp eq i32 %15, 0
  %17 = and i1 %13, %16
  %18 = tail call range(i32 0, 33) i32 @llvm.ctlz.i32(i32 %12, i1 true)
  %19 = sub nuw nsw i32 32, %18
  %20 = shl nuw i32 1, %19
  %.0.i.i.i.i.i = select i1 %17, i32 %12, i32 %20
  tail call void @_ZN26GrowableArrayWithAllocatorIj13GrowableArrayIjEE9expand_toEi(ptr noundef nonnull align 8 dereferenceable(16) %6, i32 noundef %.0.i.i.i.i.i)
  %.pre.i.i = load i32, ptr %6, align 8
  br label %21

21:                                               ; preds = %11, %8
  %22 = phi i32 [ %.pre.i.i, %11 ], [ %7, %8 ]
  %23 = icmp slt i32 %22, %5
  br i1 %23, label %.lr.ph.i.i, label %._crit_edge.i.i

.lr.ph.i.i:                                       ; preds = %21
  %24 = getelementptr inbounds i8, ptr %0, i64 264
  %25 = sext i32 %22 to i64
  %wide.trip.count.i.i = sext i32 %5 to i64
  br label %26

26:                                               ; preds = %26, %.lr.ph.i.i
  %indvars.iv.i.i = phi i64 [ %25, %.lr.ph.i.i ], [ %indvars.iv.next.i.i, %26 ]
  %27 = load ptr, ptr %24, align 8
  %28 = getelementptr inbounds i32, ptr %27, i64 %indvars.iv.i.i
  store i32 0, ptr %28, align 4
  %indvars.iv.next.i.i = add nsw i64 %indvars.iv.i.i, 1
  %exitcond.not.i.i = icmp eq i64 %indvars.iv.next.i.i, %wide.trip.count.i.i
  br i1 %exitcond.not.i.i, label %._crit_edge.i.i, label %26, !llvm.loop !9

._crit_edge.i.i:                                  ; preds = %26, %21
  %29 = add nsw i32 %5, 1
  store i32 %29, ptr %6, align 8
  br label %_ZN12LiveRangeMap6extendEjj.exit

_ZN12LiveRangeMap6extendEjj.exit:                 ; preds = %3, %._crit_edge.i.i
  %30 = getelementptr inbounds i8, ptr %0, i64 264
  %31 = load ptr, ptr %30, align 8
  %32 = sext i32 %5 to i64
  %33 = getelementptr inbounds i32, ptr %31, i64 %32
  store i32 %2, ptr %33, align 4
  %34 = getelementptr inbounds i8, ptr %0, i64 232
  %35 = load i32, ptr %34, align 8
  %.not.i.i4 = icmp sgt i32 %35, %2
  br i1 %.not.i.i4, label %_ZN12LiveRangeMap9uf_extendEjj.exit, label %36

36:                                               ; preds = %_ZN12LiveRangeMap6extendEjj.exit
  %37 = getelementptr inbounds i8, ptr %0, i64 236
  %38 = load i32, ptr %37, align 4
  %.not12.i.i5 = icmp sgt i32 %38, %2
  br i1 %.not12.i.i5, label %49, label %39

39:                                               ; preds = %36
  %40 = add nsw i32 %2, 1
  %41 = icmp sgt i32 %2, -1
  %42 = xor i32 %2, -2147483648
  %43 = and i32 %42, %40
  %44 = icmp eq i32 %43, 0
  %45 = and i1 %41, %44
  %46 = tail call range(i32 0, 33) i32 @llvm.ctlz.i32(i32 %40, i1 true)
  %47 = sub nuw nsw i32 32, %46
  %48 = shl nuw i32 1, %47
  %.0.i.i.i.i.i6 = select i1 %45, i32 %40, i32 %48
  tail call void @_ZN26GrowableArrayWithAllocatorIj13GrowableArrayIjEE9expand_toEi(ptr noundef nonnull align 8 dereferenceable(16) %34, i32 noundef %.0.i.i.i.i.i6)
  %.pre.i.i7 = load i32, ptr %34, align 8
  br label %49

49:                                               ; preds = %39, %36
  %50 = phi i32 [ %.pre.i.i7, %39 ], [ %35, %36 ]
  %51 = icmp slt i32 %50, %2
  br i1 %51, label %.lr.ph.i.i9, label %._crit_edge.i.i8

.lr.ph.i.i9:                                      ; preds = %49
  %52 = getelementptr inbounds i8, ptr %0, i64 240
  %53 = sext i32 %50 to i64
  %wide.trip.count.i.i10 = sext i32 %2 to i64
  br label %54

54:                                               ; preds = %54, %.lr.ph.i.i9
  %indvars.iv.i.i11 = phi i64 [ %53, %.lr.ph.i.i9 ], [ %indvars.iv.next.i.i12, %54 ]
  %55 = load ptr, ptr %52, align 8
  %56 = getelementptr inbounds i32, ptr %55, i64 %indvars.iv.i.i11
  store i32 0, ptr %56, align 4
  %indvars.iv.next.i.i12 = add nsw i64 %indvars.iv.i.i11, 1
  %exitcond.not.i.i13 = icmp eq i64 %indvars.iv.next.i.i12, %wide.trip.count.i.i10
  br i1 %exitcond.not.i.i13, label %._crit_edge.i.i8, label %54, !llvm.loop !9

._crit_edge.i.i8:                                 ; preds = %54, %49
  %57 = add nsw i32 %2, 1
  store i32 %57, ptr %34, align 8
  br label %_ZN12LiveRangeMap9uf_extendEjj.exit

_ZN12LiveRangeMap9uf_extendEjj.exit:              ; preds = %_ZN12LiveRangeMap6extendEjj.exit, %._crit_edge.i.i8
  %58 = getelementptr inbounds i8, ptr %0, i64 240
  %59 = load ptr, ptr %58, align 8
  %60 = sext i32 %2 to i64
  %61 = getelementptr inbounds i32, ptr %59, i64 %60
  store i32 %2, ptr %61, align 4
  ret void
}